; Function Attrs: nounwind uwtable
define ptr @l_Lean_ParseImports_setImportAll(i8 noundef zeroext %0, ptr readnone captures(none) %1, ptr noundef %2) local_unnamed_addr #0 {
  %.val = load i32, ptr %2, align 4, !tbaa !4
  %4 = icmp eq i32 %.val, 1
  br i1 %4, label %58, label %5

5:                                                ; preds = %3
  %6 = getelementptr inbounds nuw i8, ptr %2, i64 8
  %7 = load ptr, ptr %6, align 8, !tbaa !10
  %8 = getelementptr inbounds nuw i8, ptr %2, i64 16
  %9 = load ptr, ptr %8, align 8, !tbaa !10
  %10 = getelementptr inbounds nuw i8, ptr %2, i64 24
  %11 = load ptr, ptr %10, align 8, !tbaa !10
  %12 = getelementptr inbounds nuw i8, ptr %2, i64 32
  %13 = load i8, ptr %12, align 1, !tbaa !15
  %14 = getelementptr inbounds nuw i8, ptr %2, i64 33
  %15 = load i8, ptr %14, align 1, !tbaa !15
  %16 = ptrtoint ptr %11 to i64
  %17 = and i64 %16, 1
  %.not = icmp eq i64 %17, 0
  br i1 %.not, label %18, label %lean_inc.exit28

18:                                               ; preds = %5
  %.val.i = load i32, ptr %11, align 4, !tbaa !4
  %19 = icmp sgt i32 %.val.i, 0
  br i1 %19, label %20, label %22, !prof !9

20:                                               ; preds = %18
  %21 = add nuw i32 %.val.i, 1
  store i32 %21, ptr %11, align 4, !tbaa !4
  br label %lean_inc.exit28

22:                                               ; preds = %18
  %.not.i29 = icmp eq i32 %.val.i, 0
  br i1 %.not.i29, label %lean_inc.exit28, label %23

23:                                               ; preds = %22
  tail call void @lean_inc_ref_cold(ptr noundef nonnull %11) #6
  br label %lean_inc.exit28

lean_inc.exit28:                                  ; preds = %23, %22, %20, %5
  %24 = ptrtoint ptr %9 to i64
  %25 = and i64 %24, 1
  %.not36 = icmp eq i64 %25, 0
  br i1 %.not36, label %26, label %lean_inc.exit27

26:                                               ; preds = %lean_inc.exit28
  %.val.i30 = load i32, ptr %9, align 4, !tbaa !4
  %27 = icmp sgt i32 %.val.i30, 0
  br i1 %27, label %28, label %30, !prof !9

28:                                               ; preds = %26
  %29 = add nuw i32 %.val.i30, 1
  store i32 %29, ptr %9, align 4, !tbaa !4
  br label %lean_inc.exit27

30:                                               ; preds = %26
  %.not.i31 = icmp eq i32 %.val.i30, 0
  br i1 %.not.i31, label %lean_inc.exit27, label %31

31:                                               ; preds = %30
  tail call void @lean_inc_ref_cold(ptr noundef nonnull %9) #6
  br label %lean_inc.exit27

lean_inc.exit27:                                  ; preds = %31, %30, %28, %lean_inc.exit28
  %32 = ptrtoint ptr %7 to i64
  %33 = and i64 %32, 1
  %.not37 = icmp eq i64 %33, 0
  br i1 %.not37, label %34, label %lean_inc.exit

34:                                               ; preds = %lean_inc.exit27
  %.val.i33 = load i32, ptr %7, align 4, !tbaa !4
  %35 = icmp sgt i32 %.val.i33, 0
  br i1 %35, label %36, label %38, !prof !9

36:                                               ; preds = %34
  %37 = add nuw i32 %.val.i33, 1
  store i32 %37, ptr %7, align 4, !tbaa !4
  br label %lean_inc.exit

38:                                               ; preds = %34
  %.not.i34 = icmp eq i32 %.val.i33, 0
  br i1 %.not.i34, label %lean_inc.exit, label %39

39:                                               ; preds = %38
  tail call void @lean_inc_ref_cold(ptr noundef nonnull %7) #6
  br label %lean_inc.exit

lean_inc.exit:                                    ; preds = %39, %38, %36, %lean_inc.exit27
  %40 = ptrtoint ptr %2 to i64
  %41 = and i64 %40, 1
  %.not38 = icmp eq i64 %41, 0
  br i1 %.not38, label %42, label %lean_dec.exit

42:                                               ; preds = %lean_inc.exit
  %43 = load i32, ptr %2, align 4, !tbaa !4
  %44 = icmp sgt i32 %43, 1
  br i1 %44, label %45, label %47, !prof !9

45:                                               ; preds = %42
  %46 = add nsw i32 %43, -1
  store i32 %46, ptr %2, align 4, !tbaa !4
  br label %lean_dec.exit

47:                                               ; preds = %42
  %.not.i = icmp eq i32 %43, 0
  br i1 %.not.i, label %lean_dec.exit, label %48

48:                                               ; preds = %47
  tail call void @lean_dec_ref_cold(ptr noundef nonnull %2) #6
  br label %lean_dec.exit

lean_dec.exit:                                    ; preds = %48, %47, %45, %lean_inc.exit
  tail call void @lean_inc_heartbeat() #6
  %49 = tail call noalias ptr @mi_malloc_small(i64 noundef 40) #6
  %50 = icmp eq ptr %49, null
  br i1 %50, label %51, label %lean_alloc_ctor.exit

51:                                               ; preds = %lean_dec.exit
  tail call void @lean_internal_panic_out_of_memory() #7
  unreachable

lean_alloc_ctor.exit:                             ; preds = %lean_dec.exit
  %52 = getelementptr inbounds nuw i8, ptr %49, i64 4
  %53 = getelementptr inbounds nuw i8, ptr %49, i64 32
  store i64 0, ptr %53, align 8, !tbaa !16
  store i32 1, ptr %49, align 4, !tbaa !4
  store i32 196648, ptr %52, align 4
  %54 = getelementptr inbounds nuw i8, ptr %49, i64 8
  store ptr %7, ptr %54, align 8, !tbaa !10
  %55 = getelementptr inbounds nuw i8, ptr %49, i64 16
  store ptr %9, ptr %55, align 8, !tbaa !10
  %56 = getelementptr inbounds nuw i8, ptr %49, i64 24
  store ptr %11, ptr %56, align 8, !tbaa !10
  store i8 %13, ptr %53, align 1, !tbaa !15
  %57 = getelementptr inbounds nuw i8, ptr %49, i64 33
  store i8 %15, ptr %57, align 1, !tbaa !15
  br label %58

58:                                               ; preds = %3, %lean_alloc_ctor.exit
  %.sink39 = phi ptr [ %49, %lean_alloc_ctor.exit ], [ %2, %3 ]
  %59 = getelementptr inbounds nuw i8, ptr %.sink39, i64 34
  store i8 %0, ptr %59, align 1, !tbaa !15
  ret ptr %.sink39
}